; Function Attrs: nounwind uwtable
define ptr @lean_add_projection_info(ptr noundef %0, ptr noundef %1, ptr noundef %2, ptr noundef %3, ptr noundef %4, i8 noundef zeroext %5) local_unnamed_addr #0 {
  tail call void @lean_inc_heartbeat() #3
  %7 = tail call noalias ptr @mi_malloc_small(i64 noundef 40) #3
  %8 = icmp eq ptr %7, null
  br i1 %8, label %9, label %lean_alloc_ctor.exit

9:                                                ; preds = %6
  tail call void @lean_internal_panic_out_of_memory() #4
  unreachable

lean_alloc_ctor.exit:                             ; preds = %6
  %10 = getelementptr inbounds nuw i8, ptr %7, i64 4
  %11 = getelementptr inbounds nuw i8, ptr %7, i64 32
  store i64 0, ptr %11, align 8, !tbaa !12
  store i32 1, ptr %7, align 4, !tbaa !8
  store i32 196648, ptr %10, align 4
  %12 = getelementptr inbounds nuw i8, ptr %7, i64 8
  store ptr %2, ptr %12, align 8, !tbaa !4
  %13 = getelementptr inbounds nuw i8, ptr %7, i64 16
  store ptr %3, ptr %13, align 8, !tbaa !4
  %14 = getelementptr inbounds nuw i8, ptr %7, i64 24
  store ptr %4, ptr %14, align 8, !tbaa !4
  store i8 %5, ptr %11, align 1, !tbaa !14
  %15 = load ptr, ptr @l_Lean_addProjectionFnInfo___closed__1, align 8, !tbaa !4
  %16 = tail call ptr @l_Lean_MapDeclarationExtension_insert___rarg(ptr noundef %15, ptr noundef %0, ptr noundef %1, ptr noundef nonnull %7) #3
  ret ptr %16
}